; Function Attrs: null_pointer_is_valid sspstrong uwtable
define internal i32 @dissect_mms_ConfirmedServiceResponse(i1 zeroext %0, ptr noundef %1, i32 noundef %2, ptr noundef %3, ptr noundef %4, i32 noundef %5) #0 {
  %7 = alloca i8, align 1
  %8 = alloca i8, align 1
  %9 = alloca i32, align 4
  call void @llvm.lifetime.start.p0(i64 1, ptr nonnull %7) #8
  call void @llvm.lifetime.start.p0(i64 1, ptr nonnull %8) #8
  call void @llvm.lifetime.start.p0(i64 4, ptr nonnull %9) #8
  %10 = call i32 @get_ber_identifier(ptr noundef %1, i32 noundef %2, ptr noundef nonnull %7, ptr noundef nonnull %8, ptr noundef nonnull %9)
  %11 = getelementptr inbounds nuw i8, ptr %3, i64 48
  %12 = load ptr, ptr %11, align 8
  %.not = icmp eq ptr %12, null
  br i1 %.not, label %16, label %13

13:                                               ; preds = %6
  %14 = load i32, ptr %9, align 4
  %15 = getelementptr inbounds nuw i8, ptr %12, i64 32
  store i32 %14, ptr %15, align 8
  br label %16

16:                                               ; preds = %13, %6
  %17 = load i32, ptr @ett_mms_ConfirmedServiceResponse, align 4
  %18 = call i32 @dissect_ber_choice(ptr noundef %3, ptr noundef %4, ptr noundef %1, i32 noundef %2, ptr noundef nonnull @ConfirmedServiceResponse_choice, i32 noundef %5, i32 noundef %17, ptr noundef null)
  call void @llvm.lifetime.end.p0(i64 4, ptr nonnull %9) #8
  call void @llvm.lifetime.end.p0(i64 1, ptr nonnull %8) #8
  call void @llvm.lifetime.end.p0(i64 1, ptr nonnull %7) #8
  ret i32 %18
}